; Function Attrs: null_pointer_is_valid sspstrong uwtable
define internal void @flex_frame_ru_usage_dissect(ptr noundef %0, ptr noundef %1, i32 noundef %2, i32 noundef %3) #0 {
  %.not = icmp eq i32 %3, 2
  br i1 %.not, label %7, label %5

5:                                                ; preds = %4
  %6 = tail call ptr (ptr, ptr, ptr, ptr, i32, i32, ptr, ...) @proto_tree_add_expert_format(ptr noundef %1, ptr noundef null, ptr noundef nonnull @ei_warn_unknown_flex_len, ptr noundef %0, i32 noundef %2, i32 noundef %3, ptr noundef nonnull @.str.748, i32 noundef %3)
  br label %12

7:                                                ; preds = %4
  %8 = tail call zeroext i16 @tvb_get_ntohs(ptr noundef %0, i32 noundef %2)
  %9 = load i32, ptr @hf_flex_frame_ru_count, align 4
  %10 = zext i16 %8 to i32
  %11 = tail call ptr @proto_tree_add_uint(ptr noundef %1, i32 noundef %9, ptr noundef %0, i32 noundef %2, i32 noundef 2, i32 noundef %10)
  br label %12

12:                                               ; preds = %7, %5
  ret void
}